target datalayout = "e-m:e-p270:32:32-p271:32:32-p272:64:64-i64:64-i128:128-f80:128-n8:16:32:64-S128"
target triple = "x86_64-unknown-linux-gnu"

%struct.anon = type { i32, i32 }
%"union.base::debug::ActivityData" = type { %struct.anon.0 }
%struct.anon.0 = type { i64 }
%"union.base::debug::(anonymous namespace)::ThreadRef" = type { i64 }
%"struct.base::debug::Activity" = type { i64, i64, [10 x i64], i8, [7 x i8], %"union.base::debug::ActivityData" }
%"class.std::__cxx11::basic_string" = type { %"struct.std::__cxx11::basic_string<char>::_Alloc_hider", i64, %union.anon }
%"struct.std::__cxx11::basic_string<char>::_Alloc_hider" = type { ptr }
%union.anon = type { i64, [8 x i8] }
%"class.logging::CheckOpResult" = type { ptr }
%"class.logging::LogMessage" = type <{ i32, [4 x i8], %"class.std::__cxx11::basic_ostringstream", i64, ptr, i32, [4 x i8] }>
%"class.std::__cxx11::basic_ostringstream" = type { %"class.std::basic_ostream.base", %"class.std::__cxx11::basic_stringbuf", %"class.std::basic_ios" }
%"class.std::basic_ostream.base" = type { ptr }
%"class.std::__cxx11::basic_stringbuf" = type { %"class.std::basic_streambuf", i32, %"class.std::__cxx11::basic_string" }
%"class.std::basic_streambuf" = type { ptr, ptr, ptr, ptr, ptr, ptr, ptr, %"class.std::locale" }
%"class.std::locale" = type { ptr }
%"class.std::basic_ios" = type { %"class.std::ios_base", ptr, i8, i8, ptr, ptr, ptr, ptr }
%"class.std::ios_base" = type { ptr, i64, i64, i32, i32, i32, ptr, %"struct.std::ios_base::_Words", [8 x %"struct.std::ios_base::_Words"], i32, ptr, %"class.std::locale" }
%"struct.std::ios_base::_Words" = type { ptr, i64 }
%"class.base::debug::ThreadActivityTracker" = type <{ ptr, ptr, ptr, i32, i8, %"class.base::ThreadChecker", [2 x i8] }>
%"class.base::ThreadChecker" = type { i8 }
%"struct.base::debug::ThreadActivityTracker::Header" = type <{ %"struct.std::atomic", i32, %"struct.std::atomic.8", %"union.base::debug::(anonymous namespace)::ThreadRef", i64, i64, i32, %"struct.std::atomic", %"struct.std::atomic", [32 x i8], [4 x i8] }>
%"struct.std::atomic.8" = type { %"struct.std::__atomic_base.9" }
%"struct.std::__atomic_base.9" = type { i64 }
%"struct.std::atomic" = type { %"struct.std::__atomic_base" }
%"struct.std::__atomic_base" = type { i32 }
%"class.base::debug::ScopedActivity" = type <{ %"class.base::debug::GlobalActivityTracker::ScopedThreadActivity", i32, [4 x i8] }>
%"class.base::debug::GlobalActivityTracker::ScopedThreadActivity" = type { %"class.base::debug::ThreadActivityTracker::ScopedActivity" }
%"class.base::debug::ThreadActivityTracker::ScopedActivity" = type { ptr }

@_ZN4base5debug17kNullActivityDataE = dso_local constant { %struct.anon } zeroinitializer, align 8
@.str = private unnamed_addr constant [128 x i8] c"generated/home/dtcxzyw/WorkSpace/Projects/compilers/llvm-opt-benchmark/bench/libquic/libquic/src/base/debug/activity_tracker.cc\00", align 1

; Function Attrs: mustprogress nounwind uwtable
define linkonce_odr dso_local noundef nonnull align 8 dereferenceable(8) ptr @_ZN7logging10LogMessage6streamEv(ptr noundef nonnull align 8 dereferenceable(404) %this) #1 comdat align 2 {
entry:
  %this.addr = alloca ptr, align 8
  store ptr %this, ptr %this.addr, align 8
  %this1 = load ptr, ptr %this.addr, align 8
  %stream_ = getelementptr inbounds %"class.logging::LogMessage", ptr %this1, i32 0, i32 2
  ret ptr %stream_
}

; Function Attrs: mustprogress nounwind uwtable
define linkonce_odr dso_local noundef ptr @_ZN7logging13CheckOpResult7messageB5cxx11Ev(ptr noundef nonnull align 8 dereferenceable(8) %this) #1 comdat align 2 {
entry:
  %this.addr = alloca ptr, align 8
  store ptr %this, ptr %this.addr, align 8
  %this1 = load ptr, ptr %this.addr, align 8
  %message_ = getelementptr inbounds %"class.logging::CheckOpResult", ptr %this1, i32 0, i32 0
  %0 = load ptr, ptr %message_, align 8
  ret ptr %0
}

; Function Attrs: mustprogress nounwind uwtable
define linkonce_odr dso_local noundef zeroext i1 @_ZNK7logging13CheckOpResultcvbEv(ptr noundef nonnull align 8 dereferenceable(8) %this) #1 comdat align 2 {
entry:
  %this.addr = alloca ptr, align 8
  store ptr %this, ptr %this.addr, align 8
  %this1 = load ptr, ptr %this.addr, align 8
  %message_ = getelementptr inbounds %"class.logging::CheckOpResult", ptr %this1, i32 0, i32 0
  %0 = load ptr, ptr %message_, align 8
  %tobool = icmp ne ptr %0, null
  %lnot = xor i1 %tobool, true
  ret i1 %lnot
}

; Function Attrs: mustprogress nounwind uwtable
define linkonce_odr dso_local void @_ZN7logging13CheckOpResultC2EPNSt7__cxx1112basic_stringIcSt11char_traitsIcESaIcEEE(ptr noundef nonnull align 8 dereferenceable(8) %this, ptr noundef %message) unnamed_addr #1 comdat align 2 {
entry:
  %this.addr = alloca ptr, align 8
  %message.addr = alloca ptr, align 8
  store ptr %this, ptr %this.addr, align 8
  store ptr %message, ptr %message.addr, align 8
  %this1 = load ptr, ptr %this.addr, align 8
  %message_ = getelementptr inbounds %"class.logging::CheckOpResult", ptr %this1, i32 0, i32 0
  %0 = load ptr, ptr %message.addr, align 8
  store ptr %0, ptr %message_, align 8
  ret void
}

; Function Attrs: mustprogress nounwind uwtable
define linkonce_odr dso_local noundef i32 @_ZStanSt12memory_orderSt23__memory_order_modifier(i32 noundef %__m, i32 noundef %__mod) #1 comdat {
entry:
  %__m.addr = alloca i32, align 4
  %__mod.addr = alloca i32, align 4
  store i32 %__m, ptr %__m.addr, align 4
  store i32 %__mod, ptr %__mod.addr, align 4
  %0 = load i32, ptr %__m.addr, align 4
  %1 = load i32, ptr %__mod.addr, align 4
  %and = and i32 %0, %1
  ret i32 %and
}

; Function Attrs: mustprogress uwtable
define dso_local void @_ZN4base5debug21ThreadActivityTracker14ChangeActivityENS0_8Activity4TypeERKNS0_12ActivityDataE(ptr noundef nonnull align 8 dereferenceable(30) %this, i8 noundef zeroext %type, ptr noundef nonnull align 8 dereferenceable(8) %data) #0 align 2 personality ptr @__gxx_personality_v0 {
entry:
  %this.addr.i = alloca ptr, align 8
  %__m.addr.i = alloca i32, align 4
  %__b.i = alloca i32, align 4
  %atomic-temp.i = alloca i32, align 4
  %this.addr = alloca ptr, align 8
  %type.addr = alloca i8, align 1
  %data.addr = alloca ptr, align 8
  %depth = alloca i32, align 4
  %true_if_passed = alloca %"class.logging::CheckOpResult", align 8
  %ref.tmp = alloca %"class.logging::LogMessage", align 8
  %exn.slot = alloca ptr, align 8
  %ehselector.slot = alloca i32, align 4
  %activity = alloca ptr, align 8
  %true_if_passed8 = alloca %"class.logging::CheckOpResult", align 8
  %ref.tmp12 = alloca %"class.logging::LogMessage", align 8
  store ptr %this, ptr %this.addr, align 8
  store i8 %type, ptr %type.addr, align 1
  store ptr %data, ptr %data.addr, align 8
  %this1 = load ptr, ptr %this.addr, align 8
  %header_ = getelementptr inbounds %"class.base::debug::ThreadActivityTracker", ptr %this1, i32 0, i32 1
  %0 = load ptr, ptr %header_, align 8
  %current_depth = getelementptr inbounds %"struct.base::debug::ThreadActivityTracker::Header", ptr %0, i32 0, i32 7
  store ptr %current_depth, ptr %this.addr.i, align 8
  store i32 2, ptr %__m.addr.i, align 4
  %this1.i = load ptr, ptr %this.addr.i, align 8
  %1 = load i32, ptr %__m.addr.i, align 4
  %call.i = call noundef i32 @_ZStanSt12memory_orderSt23__memory_order_modifier(i32 noundef %1, i32 noundef 65535)
  store i32 %call.i, ptr %__b.i, align 4
  %2 = load i32, ptr %__m.addr.i, align 4
  switch i32 %2, label %monotonic.i [
    i32 1, label %acquire.i
    i32 2, label %acquire.i
    i32 5, label %seqcst.i
  ]

monotonic.i:                                      ; preds = %entry
  %3 = load atomic i32, ptr %this1.i monotonic, align 4
  store i32 %3, ptr %atomic-temp.i, align 4
  br label %_ZNKSt13__atomic_baseIjE4loadESt12memory_order.exit

acquire.i:                                        ; preds = %entry, %entry
  %4 = load atomic i32, ptr %this1.i acquire, align 4
  store i32 %4, ptr %atomic-temp.i, align 4
  br label %_ZNKSt13__atomic_baseIjE4loadESt12memory_order.exit

seqcst.i:                                         ; preds = %entry
  %5 = load atomic i32, ptr %this1.i seq_cst, align 4
  store i32 %5, ptr %atomic-temp.i, align 4
  br label %_ZNKSt13__atomic_baseIjE4loadESt12memory_order.exit

_ZNKSt13__atomic_baseIjE4loadESt12memory_order.exit: ; preds = %seqcst.i, %acquire.i, %monotonic.i
  %6 = load i32, ptr %atomic-temp.i, align 4
  store i32 %6, ptr %depth, align 4
  call void @_ZN7logging13CheckOpResultC2EPNSt7__cxx1112basic_stringIcSt11char_traitsIcESaIcEEE(ptr noundef nonnull align 8 dereferenceable(8) %true_if_passed, ptr noundef null)
  %call2 = call noundef zeroext i1 @_ZNK7logging13CheckOpResultcvbEv(ptr noundef nonnull align 8 dereferenceable(8) %true_if_passed)
  br i1 %call2, label %if.then, label %if.else

if.then:                                          ; preds = %_ZNKSt13__atomic_baseIjE4loadESt12memory_order.exit
  br label %if.end

if.else:                                          ; preds = %_ZNKSt13__atomic_baseIjE4loadESt12memory_order.exit
  %call3 = call noundef ptr @_ZN7logging13CheckOpResult7messageB5cxx11Ev(ptr noundef nonnull align 8 dereferenceable(8) %true_if_passed)
  call void @_ZN7logging10LogMessageC1EPKciiPNSt7__cxx1112basic_stringIcSt11char_traitsIcESaIcEEE(ptr noundef nonnull align 8 dereferenceable(404) %ref.tmp, ptr noundef @.str, i32 noundef 270, i32 noundef 0, ptr noundef %call3)
  %call4 = invoke noundef nonnull align 8 dereferenceable(8) ptr @_ZN7logging10LogMessage6streamEv(ptr noundef nonnull align 8 dereferenceable(404) %ref.tmp)
          to label %invoke.cont unwind label %lpad

invoke.cont:                                      ; preds = %if.else
  call void @_ZN7logging10LogMessageD1Ev(ptr noundef nonnull align 8 dereferenceable(404) %ref.tmp) #12
  br label %if.end

lpad:                                             ; preds = %if.else
  %7 = landingpad { ptr, i32 }
          cleanup
  %8 = extractvalue { ptr, i32 } %7, 0
  store ptr %8, ptr %exn.slot, align 8
  %9 = extractvalue { ptr, i32 } %7, 1
  store i32 %9, ptr %ehselector.slot, align 4
  call void @_ZN7logging10LogMessageD1Ev(ptr noundef nonnull align 8 dereferenceable(404) %ref.tmp) #12
  br label %eh.resume

if.end:                                           ; preds = %invoke.cont, %if.then
  %10 = load i32, ptr %depth, align 4
  %stack_slots_ = getelementptr inbounds %"class.base::debug::ThreadActivityTracker", ptr %this1, i32 0, i32 3
  %11 = load i32, ptr %stack_slots_, align 8
  %cmp = icmp ule i32 %10, %11
  br i1 %cmp, label %if.then5, label %if.end23

if.then5:                                         ; preds = %if.end
  %stack_ = getelementptr inbounds %"class.base::debug::ThreadActivityTracker", ptr %this1, i32 0, i32 2
  %12 = load ptr, ptr %stack_, align 8
  %13 = load i32, ptr %depth, align 4
  %sub = sub i32 %13, 1
  %idxprom = zext i32 %sub to i64
  %arrayidx = getelementptr inbounds %"struct.base::debug::Activity", ptr %12, i64 %idxprom
  store ptr %arrayidx, ptr %activity, align 8
  %14 = load i8, ptr %type.addr, align 1
  %conv = zext i8 %14 to i32
  %cmp6 = icmp ne i32 %conv, 0
  br i1 %cmp6, label %if.then7, label %if.end18

if.then7:                                         ; preds = %if.then5
  call void @_ZN7logging13CheckOpResultC2EPNSt7__cxx1112basic_stringIcSt11char_traitsIcESaIcEEE(ptr noundef nonnull align 8 dereferenceable(8) %true_if_passed8, ptr noundef null)
  %call9 = call noundef zeroext i1 @_ZNK7logging13CheckOpResultcvbEv(ptr noundef nonnull align 8 dereferenceable(8) %true_if_passed8)
  br i1 %call9, label %if.then10, label %if.else11

if.then10:                                        ; preds = %if.then7
  br label %if.end17

if.else11:                                        ; preds = %if.then7
  %call13 = call noundef ptr @_ZN7logging13CheckOpResult7messageB5cxx11Ev(ptr noundef nonnull align 8 dereferenceable(8) %true_if_passed8)
  call void @_ZN7logging10LogMessageC1EPKciiPNSt7__cxx1112basic_stringIcSt11char_traitsIcESaIcEEE(ptr noundef nonnull align 8 dereferenceable(404) %ref.tmp12, ptr noundef @.str, i32 noundef 278, i32 noundef 0, ptr noundef %call13)
  %call16 = invoke noundef nonnull align 8 dereferenceable(8) ptr @_ZN7logging10LogMessage6streamEv(ptr noundef nonnull align 8 dereferenceable(404) %ref.tmp12)
          to label %invoke.cont15 unwind label %lpad14

invoke.cont15:                                    ; preds = %if.else11
  call void @_ZN7logging10LogMessageD1Ev(ptr noundef nonnull align 8 dereferenceable(404) %ref.tmp12) #12
  br label %if.end17

lpad14:                                           ; preds = %if.else11
  %15 = landingpad { ptr, i32 }
          cleanup
  %16 = extractvalue { ptr, i32 } %15, 0
  store ptr %16, ptr %exn.slot, align 8
  %17 = extractvalue { ptr, i32 } %15, 1
  store i32 %17, ptr %ehselector.slot, align 4
  call void @_ZN7logging10LogMessageD1Ev(ptr noundef nonnull align 8 dereferenceable(404) %ref.tmp12) #12
  br label %eh.resume

if.end17:                                         ; preds = %invoke.cont15, %if.then10
  %18 = load i8, ptr %type.addr, align 1
  %19 = load ptr, ptr %activity, align 8
  %activity_type = getelementptr inbounds %"struct.base::debug::Activity", ptr %19, i32 0, i32 3
  store i8 %18, ptr %activity_type, align 8
  br label %if.end18

if.end18:                                         ; preds = %if.end17, %if.then5
  %20 = load ptr, ptr %data.addr, align 8
  %cmp19 = icmp ne ptr %20, @_ZN4base5debug17kNullActivityDataE
  br i1 %cmp19, label %if.then20, label %if.end22

if.then20:                                        ; preds = %if.end18
  %21 = load ptr, ptr %data.addr, align 8
  %22 = load ptr, ptr %activity, align 8
  %data21 = getelementptr inbounds %"struct.base::debug::Activity", ptr %22, i32 0, i32 5
  call void @llvm.memcpy.p0.p0.i64(ptr align 8 %data21, ptr align 8 %21, i64 8, i1 false)
  br label %if.end22

if.end22:                                         ; preds = %if.then20, %if.end18
  br label %if.end23

if.end23:                                         ; preds = %if.end22, %if.end
  ret void

eh.resume:                                        ; preds = %lpad14, %lpad
  %exn = load ptr, ptr %exn.slot, align 8
  %sel = load i32, ptr %ehselector.slot, align 4
  %lpad.val = insertvalue { ptr, i32 } poison, ptr %exn, 0
  %lpad.val24 = insertvalue { ptr, i32 } %lpad.val, i32 %sel, 1
  resume { ptr, i32 } %lpad.val24
}

; Function Attrs: mustprogress uwtable
define linkonce_odr dso_local void @_ZN4base5debug21ThreadActivityTracker14ScopedActivity17ChangeTypeAndDataENS0_8Activity4TypeERKNS0_12ActivityDataE(ptr noundef nonnull align 8 dereferenceable(8) %this, i8 noundef zeroext %type, ptr noundef nonnull align 8 dereferenceable(8) %data) #0 comdat align 2 {
entry:
  %this.addr = alloca ptr, align 8
  %type.addr = alloca i8, align 1
  %data.addr = alloca ptr, align 8
  store ptr %this, ptr %this.addr, align 8
  store i8 %type, ptr %type.addr, align 1
  store ptr %data, ptr %data.addr, align 8
  %this1 = load ptr, ptr %this.addr, align 8
  %tracker_ = getelementptr inbounds %"class.base::debug::ThreadActivityTracker::ScopedActivity", ptr %this1, i32 0, i32 0
  %0 = load ptr, ptr %tracker_, align 8
  %tobool = icmp ne ptr %0, null
  br i1 %tobool, label %if.then, label %if.end

if.then:                                          ; preds = %entry
  %tracker_2 = getelementptr inbounds %"class.base::debug::ThreadActivityTracker::ScopedActivity", ptr %this1, i32 0, i32 0
  %1 = load ptr, ptr %tracker_2, align 8
  %2 = load i8, ptr %type.addr, align 1
  %3 = load ptr, ptr %data.addr, align 8
  call void @_ZN4base5debug21ThreadActivityTracker14ChangeActivityENS0_8Activity4TypeERKNS0_12ActivityDataE(ptr noundef nonnull align 8 dereferenceable(30) %1, i8 noundef zeroext %2, ptr noundef nonnull align 8 dereferenceable(8) %3)
  br label %if.end

if.end:                                           ; preds = %if.then, %entry
  ret void
}

; Function Attrs: mustprogress nounwind uwtable
define linkonce_odr dso_local i64 @_ZN4base5debug12ActivityData10ForGenericEji(i32 noundef %id, i32 noundef %info) #1 comdat align 2 {
entry:
  %retval = alloca %"union.base::debug::ActivityData", align 8
  %id.addr = alloca i32, align 4
  %info.addr = alloca i32, align 4
  store i32 %id, ptr %id.addr, align 4
  store i32 %info, ptr %info.addr, align 4
  %0 = load i32, ptr %id.addr, align 4
  %id1 = getelementptr inbounds %struct.anon, ptr %retval, i32 0, i32 0
  store i32 %0, ptr %id1, align 8
  %1 = load i32, ptr %info.addr, align 4
  %info2 = getelementptr inbounds %struct.anon, ptr %retval, i32 0, i32 1
  store i32 %1, ptr %info2, align 4
  %coerce.dive = getelementptr inbounds %"union.base::debug::ActivityData", ptr %retval, i32 0, i32 0
  %coerce.dive3 = getelementptr inbounds %struct.anon.0, ptr %coerce.dive, i32 0, i32 0
  %2 = load i64, ptr %coerce.dive3, align 8
  ret i64 %2
}

; Function Attrs: mustprogress uwtable
define dso_local void @_ZN4base5debug14ScopedActivity10ChangeInfoEi(ptr noundef nonnull align 8 dereferenceable(12) %this, i32 noundef %info) #0 align 2 {
entry:
  %this.addr = alloca ptr, align 8
  %info.addr = alloca i32, align 4
  %ref.tmp = alloca %"union.base::debug::ActivityData", align 8
  store ptr %this, ptr %this.addr, align 8
  store i32 %info, ptr %info.addr, align 4
  %this1 = load ptr, ptr %this.addr, align 8
  %id_ = getelementptr inbounds %"class.base::debug::ScopedActivity", ptr %this1, i32 0, i32 1
  %0 = load i32, ptr %id_, align 8
  %1 = load i32, ptr %info.addr, align 4
  %call = call i64 @_ZN4base5debug12ActivityData10ForGenericEji(i32 noundef %0, i32 noundef %1)
  %coerce.dive = getelementptr inbounds %"union.base::debug::ActivityData", ptr %ref.tmp, i32 0, i32 0
  %coerce.dive2 = getelementptr inbounds %struct.anon.0, ptr %coerce.dive, i32 0, i32 0
  store i64 %call, ptr %coerce.dive2, align 8
  call void @_ZN4base5debug21ThreadActivityTracker14ScopedActivity17ChangeTypeAndDataENS0_8Activity4TypeERKNS0_12ActivityDataE(ptr noundef nonnull align 8 dereferenceable(8) %this1, i8 noundef zeroext 0, ptr noundef nonnull align 8 dereferenceable(8) %ref.tmp)
  ret void
}